target datalayout = "e-m:e-p270:32:32-p271:32:32-p272:64:64-i64:64-i128:128-f80:128-n8:16:32:64-S128"
target triple = "x86_64-pc-linux-gnu"

%struct.nwk_key_entry_s = type { [16 x i8], ptr, ptr, i8, i8, i8 }

@nwk_key_storage = internal global [64 x %struct.nwk_key_entry_s] zeroinitializer, align 16

; Function Attrs: alwaysinline nounwind
define internal ptr @memcpy.inline(ptr noalias %0, ptr noalias %1, i64 %2) #1 {
  %4 = alloca ptr, align 8
  %5 = alloca ptr, align 8
  %6 = alloca i64, align 8
  store ptr %0, ptr %4, align 8
  store ptr %1, ptr %5, align 8
  store i64 %2, ptr %6, align 8
  %7 = load ptr, ptr %4, align 8
  %8 = load ptr, ptr %5, align 8
  %9 = load i64, ptr %6, align 8
  %10 = load ptr, ptr %4, align 8
  %11 = call i64 @llvm.objectsize.i64.p0(ptr %10, i1 false, i1 true, i1 true)
  %12 = call ptr @__memcpy_chk(ptr noundef %7, ptr noundef %8, i64 noundef %9, i64 noundef %11) #9
  ret ptr %12
}

; Function Attrs: nounwind null_pointer_is_valid sspstrong uwtable
define internal void @reverse(ptr noundef %0, ptr noundef %1, i16 noundef zeroext %2) #0 {
  %4 = alloca ptr, align 8
  %5 = alloca ptr, align 8
  %6 = alloca i16, align 2
  %7 = alloca i32, align 4
  store ptr %0, ptr %4, align 8
  store ptr %1, ptr %5, align 8
  store i16 %2, ptr %6, align 2
  call void @llvm.lifetime.start.p0(i64 4, ptr %7) #9
  store i32 0, ptr %7, align 4
  br label %8

8:                                                ; preds = %28, %3
  %9 = load i32, ptr %7, align 4
  %10 = load i16, ptr %6, align 2
  %11 = zext i16 %10 to i32
  %12 = icmp slt i32 %9, %11
  br i1 %12, label %14, label %13

13:                                               ; preds = %8
  call void @llvm.lifetime.end.p0(i64 4, ptr %7) #9
  br label %31

14:                                               ; preds = %8
  %15 = load ptr, ptr %5, align 8
  %16 = load i32, ptr %7, align 4
  %17 = sext i32 %16 to i64
  %18 = getelementptr i8, ptr %15, i64 %17
  %19 = load i8, ptr %18, align 1
  %20 = load ptr, ptr %4, align 8
  %21 = load i16, ptr %6, align 2
  %22 = zext i16 %21 to i32
  %23 = load i32, ptr %7, align 4
  %24 = sub i32 %22, %23
  %25 = sub i32 %24, 1
  %26 = sext i32 %25 to i64
  %27 = getelementptr i8, ptr %20, i64 %26
  store i8 %19, ptr %27, align 1
  br label %28

28:                                               ; preds = %14
  %29 = load i32, ptr %7, align 4
  %30 = add i32 %29, 1
  store i32 %30, ptr %7, align 4
  br label %8, !llvm.loop !25

31:                                               ; preds = %13
  ret void
}

; Function Attrs: null_pointer_is_valid sspstrong uwtable
define hidden zeroext i1 @decrypt_data(ptr noundef %0, ptr noundef %1, i16 noundef zeroext %2, ptr noundef %3, ptr noundef %4, ptr noundef %5) #2 {
  %7 = alloca i1, align 1
  %8 = alloca ptr, align 8
  %9 = alloca ptr, align 8
  %10 = alloca i16, align 2
  %11 = alloca ptr, align 8
  %12 = alloca ptr, align 8
  %13 = alloca ptr, align 8
  %14 = alloca i8, align 1
  %15 = alloca i8, align 1
  %16 = alloca i32, align 4
  %17 = alloca i32, align 4
  %18 = alloca ptr, align 8
  %19 = alloca [13 x i8], align 1
  %20 = alloca [13 x i8], align 1
  store ptr %0, ptr %8, align 8
  store ptr %1, ptr %9, align 8
  store i16 %2, ptr %10, align 2
  store ptr %3, ptr %11, align 8
  store ptr %4, ptr %12, align 8
  store ptr %5, ptr %13, align 8
  call void @llvm.lifetime.start.p0(i64 1, ptr %14) #9
  store i8 0, ptr %14, align 1
  call void @llvm.lifetime.start.p0(i64 1, ptr %15) #9
  %21 = load ptr, ptr %8, align 8
  %22 = load i8, ptr %21, align 1
  store i8 %22, ptr %15, align 1
  call void @llvm.lifetime.start.p0(i64 4, ptr %16) #9
  store i32 0, ptr %16, align 4
  %23 = load ptr, ptr %11, align 8
  %24 = load i16, ptr %23, align 2
  %25 = zext i16 %24 to i32
  %26 = icmp slt i32 %25, 5
  br i1 %26, label %32, label %27

27:                                               ; preds = %6
  %28 = load ptr, ptr %11, align 8
  %29 = load i16, ptr %28, align 2
  %30 = zext i16 %29 to i32
  %31 = icmp sgt i32 %30, 148
  br i1 %31, label %32, label %33

32:                                               ; preds = %27, %6
  store i1 false, ptr %7, align 1
  store i32 1, ptr %17, align 4
  br label %114

33:                                               ; preds = %27
  br label %34

34:                                               ; preds = %108, %33
  %35 = load i32, ptr %16, align 4
  %36 = icmp slt i32 %35, 64
  br i1 %36, label %37, label %111

37:                                               ; preds = %34
  %38 = load i32, ptr %16, align 4
  %39 = sext i32 %38 to i64
  %40 = getelementptr [64 x %struct.nwk_key_entry_s], ptr @nwk_key_storage, i64 0, i64 %39
  %41 = getelementptr inbounds nuw %struct.nwk_key_entry_s, ptr %40, i32 0, i32 4
  %42 = load i8, ptr %41, align 1, !range !6, !noundef !7
  %43 = trunc i8 %42 to i1
  br i1 %43, label %44, label %108

44:                                               ; preds = %37
  call void @llvm.lifetime.start.p0(i64 8, ptr %18) #9
  call void @llvm.lifetime.start.p0(i64 13, ptr %19) #9
  %45 = getelementptr inbounds [13 x i8], ptr %19, i64 0, i64 0
  store ptr %45, ptr %18, align 8
  %46 = load ptr, ptr %18, align 8
  %47 = load ptr, ptr %12, align 8
  call void @reverse(ptr noundef %46, ptr noundef %47, i16 noundef zeroext 8)
  %48 = load ptr, ptr %18, align 8
  %49 = getelementptr i8, ptr %48, i64 8
  store ptr %49, ptr %18, align 8
  %50 = load ptr, ptr %18, align 8
  %51 = load ptr, ptr %8, align 8
  %52 = getelementptr i8, ptr %51, i64 1
  %53 = call ptr @memcpy.inline(ptr noundef %50, ptr noundef %52, i64 noundef 4) #9
  %54 = load ptr, ptr %18, align 8
  %55 = getelementptr i8, ptr %54, i64 4
  store ptr %55, ptr %18, align 8
  %56 = load ptr, ptr %18, align 8
  store i8 5, ptr %56, align 1
  call void @llvm.lifetime.start.p0(i64 13, ptr %20) #9
  %57 = getelementptr inbounds [13 x i8], ptr %20, i64 0, i64 0
  store ptr %57, ptr %18, align 8
  %58 = load i8, ptr %15, align 1
  %59 = load ptr, ptr %18, align 8
  store i8 %58, ptr %59, align 1
  %60 = load ptr, ptr %18, align 8
  %61 = getelementptr i8, ptr %60, i64 1
  store ptr %61, ptr %18, align 8
  %62 = load ptr, ptr %18, align 8
  %63 = load ptr, ptr %8, align 8
  %64 = getelementptr i8, ptr %63, i64 1
  %65 = call ptr @memcpy.inline(ptr noundef %62, ptr noundef %64, i64 noundef 4) #9
  %66 = load ptr, ptr %18, align 8
  %67 = getelementptr i8, ptr %66, i64 4
  store ptr %67, ptr %18, align 8
  %68 = load ptr, ptr %18, align 8
  %69 = load ptr, ptr %13, align 8
  call void @reverse(ptr noundef %68, ptr noundef %69, i16 noundef zeroext 8)
  %70 = load i32, ptr %16, align 4
  %71 = sext i32 %70 to i64
  %72 = getelementptr [64 x %struct.nwk_key_entry_s], ptr @nwk_key_storage, i64 0, i64 %71
  %73 = getelementptr inbounds nuw %struct.nwk_key_entry_s, ptr %72, i32 0, i32 0
  %74 = getelementptr inbounds [16 x i8], ptr %73, i64 0, i64 0
  %75 = getelementptr inbounds [13 x i8], ptr %19, i64 0, i64 0
  %76 = getelementptr inbounds [13 x i8], ptr %20, i64 0, i64 0
  %77 = load ptr, ptr %8, align 8
  %78 = load i16, ptr %10, align 2
  %79 = zext i16 %78 to i32
  %80 = sext i32 %79 to i64
  %81 = getelementptr i8, ptr %77, i64 %80
  %82 = load ptr, ptr %9, align 8
  %83 = load ptr, ptr %11, align 8
  %84 = load i16, ptr %83, align 2
  %85 = zext i16 %84 to i32
  %86 = load i16, ptr %10, align 2
  %87 = zext i16 %86 to i32
  %88 = sub i32 %85, %87
  %89 = sub i32 %88, 4
  %90 = call zeroext i1 @zbee_sec_ccm_decrypt(ptr noundef %74, ptr noundef %75, ptr noundef %76, ptr noundef %81, ptr noundef %82, i32 noundef 13, i32 noundef %89, i32 noundef 4)
  %91 = zext i1 %90 to i8
  store i8 %91, ptr %14, align 1
  %92 = load i8, ptr %14, align 1, !range !6, !noundef !7
  %93 = trunc i8 %92 to i1
  br i1 %93, label %94, label %104

94:                                               ; preds = %44
  %95 = load ptr, ptr %11, align 8
  %96 = load i16, ptr %95, align 2
  %97 = zext i16 %96 to i32
  %98 = load i16, ptr %10, align 2
  %99 = zext i16 %98 to i32
  %100 = sub i32 %97, %99
  %101 = sub i32 %100, 4
  %102 = trunc i32 %101 to i16
  %103 = load ptr, ptr %11, align 8
  store i16 %102, ptr %103, align 2
  store i32 3, ptr %17, align 4
  br label %105

104:                                              ; preds = %44
  store i32 0, ptr %17, align 4
  br label %105

105:                                              ; preds = %104, %94
  call void @llvm.lifetime.end.p0(i64 13, ptr %20) #9
  call void @llvm.lifetime.end.p0(i64 13, ptr %19) #9
  call void @llvm.lifetime.end.p0(i64 8, ptr %18) #9
  %106 = load i32, ptr %17, align 4
  switch i32 %106, label %116 [
    i32 0, label %107
    i32 3, label %111
  ]

107:                                              ; preds = %105
  br label %108

108:                                              ; preds = %107, %37
  %109 = load i32, ptr %16, align 4
  %110 = add i32 %109, 1
  store i32 %110, ptr %16, align 4
  br label %34, !llvm.loop !24

111:                                              ; preds = %105, %34
  %112 = load i8, ptr %14, align 1, !range !6, !noundef !7
  %113 = trunc i8 %112 to i1
  store i1 %113, ptr %7, align 1
  store i32 1, ptr %17, align 4
  br label %114

114:                                              ; preds = %111, %32
  call void @llvm.lifetime.end.p0(i64 4, ptr %16) #9
  call void @llvm.lifetime.end.p0(i64 1, ptr %15) #9
  call void @llvm.lifetime.end.p0(i64 1, ptr %14) #9
  %115 = load i1, ptr %7, align 1
  ret i1 %115

116:                                              ; preds = %105
  unreachable
}