; Function Attrs: null_pointer_is_valid sspstrong uwtable
define hidden noundef zeroext i1 @decrypt_data(ptr noundef %0, ptr noundef %1, i16 noundef zeroext %2, ptr noundef captures(none) %3, ptr noundef readonly captures(none) %4, ptr noundef readonly captures(none) %5) local_unnamed_addr #6 {
  %7 = alloca [13 x i8], align 1
  %8 = alloca [13 x i8], align 1
  %9 = load i8, ptr %0, align 1
  %10 = load i16, ptr %3, align 2
  %11 = add i16 %10, -149
  %or.cond = icmp ult i16 %11, -144
  br i1 %or.cond, label %.loopexit, label %.preheader

.preheader:                                       ; preds = %6
  %12 = getelementptr inbounds nuw i8, ptr %7, i64 8
  %13 = getelementptr i8, ptr %0, i64 1
  %14 = getelementptr inbounds nuw i8, ptr %7, i64 12
  %15 = getelementptr inbounds nuw i8, ptr %8, i64 1
  %16 = getelementptr inbounds nuw i8, ptr %8, i64 5
  %17 = zext i16 %2 to i32
  %18 = zext i16 %2 to i64
  %19 = getelementptr i8, ptr %0, i64 %18
  br label %20

20:                                               ; preds = %.preheader, %44
  %indvars.iv = phi i64 [ 0, %.preheader ], [ %indvars.iv.next, %44 ]
  %21 = getelementptr [64 x %struct.nwk_key_entry_s], ptr @nwk_key_storage, i64 0, i64 %indvars.iv
  %22 = getelementptr inbounds nuw i8, ptr %21, i64 33
  %23 = load i8, ptr %22, align 1, !range !8, !noundef !9
  %24 = trunc nuw i8 %23 to i1
  br i1 %24, label %25, label %44

25:                                               ; preds = %20
  call void @llvm.lifetime.start.p0(i64 13, ptr nonnull %7) #17
  br label %26

26:                                               ; preds = %26, %25
  %indvars.iv.i = phi i64 [ 0, %25 ], [ %indvars.iv.next.i, %26 ]
  %27 = getelementptr i8, ptr %4, i64 %indvars.iv.i
  %28 = load i8, ptr %27, align 1
  %29 = sub nuw nsw i64 7, %indvars.iv.i
  %30 = getelementptr i8, ptr %7, i64 %29
  store i8 %28, ptr %30, align 1
  %indvars.iv.next.i = add nuw nsw i64 %indvars.iv.i, 1
  %exitcond.not.i = icmp eq i64 %indvars.iv.next.i, 8
  br i1 %exitcond.not.i, label %reverse.exit, label %26, !llvm.loop !36

reverse.exit:                                     ; preds = %26
  %31 = load i32, ptr %13, align 1
  store i32 %31, ptr %12, align 1
  store i8 5, ptr %14, align 1
  call void @llvm.lifetime.start.p0(i64 13, ptr nonnull %8) #17
  store i8 %9, ptr %8, align 1
  store i32 %31, ptr %15, align 1
  br label %32

32:                                               ; preds = %32, %reverse.exit
  %indvars.iv.i37 = phi i64 [ 0, %reverse.exit ], [ %indvars.iv.next.i38, %32 ]
  %33 = getelementptr i8, ptr %5, i64 %indvars.iv.i37
  %34 = load i8, ptr %33, align 1
  %35 = sub nuw nsw i64 7, %indvars.iv.i37
  %36 = getelementptr i8, ptr %16, i64 %35
  store i8 %34, ptr %36, align 1
  %indvars.iv.next.i38 = add nuw nsw i64 %indvars.iv.i37, 1
  %exitcond.not.i39 = icmp eq i64 %indvars.iv.next.i38, 8
  br i1 %exitcond.not.i39, label %reverse.exit40, label %32, !llvm.loop !36

reverse.exit40:                                   ; preds = %32
  %37 = load i16, ptr %3, align 2
  %38 = zext i16 %37 to i32
  %reass.sub = sub nsw i32 %38, %17
  %39 = add nsw i32 %reass.sub, -4
  %40 = call zeroext i1 @zbee_sec_ccm_decrypt(ptr noundef %21, ptr noundef nonnull %7, ptr noundef nonnull %8, ptr noundef %19, ptr noundef %1, i32 noundef 13, i32 noundef %39, i32 noundef 4)
  br i1 %40, label %41, label %.thread

.thread:                                          ; preds = %reverse.exit40
  call void @llvm.lifetime.end.p0(i64 13, ptr nonnull %8) #17
  call void @llvm.lifetime.end.p0(i64 13, ptr nonnull %7) #17
  br label %44

41:                                               ; preds = %reverse.exit40
  %42 = load i16, ptr %3, align 2
  %reass.sub46 = sub i16 %42, %2
  %43 = add i16 %reass.sub46, -4
  store i16 %43, ptr %3, align 2
  call void @llvm.lifetime.end.p0(i64 13, ptr nonnull %8) #17
  call void @llvm.lifetime.end.p0(i64 13, ptr nonnull %7) #17
  br label %.loopexit

44:                                               ; preds = %.thread, %20
  %indvars.iv.next = add nuw nsw i64 %indvars.iv, 1
  %exitcond.not = icmp eq i64 %indvars.iv.next, 64
  br i1 %exitcond.not, label %.loopexit, label %20, !llvm.loop !45

.loopexit:                                        ; preds = %44, %41, %6
  %.0 = phi i1 [ false, %6 ], [ true, %41 ], [ false, %44 ]
  ret i1 %.0
}